; Function Attrs: mustprogress uwtable
define dso_local noundef ptr @_ZNK4absl18debugging_internal11ElfMemImage9GetDynsymEj(ptr noundef nonnull readonly align 8 captures(none) dereferenceable(72) %0, i32 noundef %1) local_unnamed_addr #0 align 2 {
  %3 = getelementptr inbounds nuw i8, ptr %0, i64 40
  %4 = load i32, ptr %3, align 8, !tbaa !38
  %.not = icmp ult i32 %1, %4
  br i1 %.not, label %6, label %5, !prof !39

5:                                                ; preds = %2
  tail call void (i32, ptr, i32, ptr, ...) @_ZN4absl16raw_log_internal6RawLogENS_11LogSeverityEPKciS3_z(i32 noundef 3, ptr noundef nonnull getelementptr inbounds nuw (i8, ptr @.str, i64 123), i32 noundef 95, ptr noundef nonnull @.str.1, ptr noundef nonnull @.str.4, ptr noundef nonnull @.str.5)
  unreachable

6:                                                ; preds = %2
  %7 = getelementptr inbounds nuw i8, ptr %0, i64 8
  %8 = load ptr, ptr %7, align 8, !tbaa !28
  %9 = zext i32 %1 to i64
  %10 = getelementptr inbounds nuw %struct.Elf64_Sym, ptr %8, i64 %9
  ret ptr %10
}